target datalayout = "e-m:e-p270:32:32-p271:32:32-p272:64:64-i64:64-i128:128-f80:128-n8:16:32:64-S128"
target triple = "x86_64-unknown-linux-gnu"

%"class.icu_75::LocalPointer" = type { %"class.icu_75::LocalPointerBase" }
%"class.icu_75::LocalPointerBase" = type { ptr }
%"class.icu_75::UObject" = type { ptr }
%"class.icu_75::UnicodeString" = type { %"class.icu_75::Replaceable", %"union.icu_75::UnicodeString::StackBufferOrFields" }
%"class.icu_75::Replaceable" = type { %"class.icu_75::UObject" }
%"union.icu_75::UnicodeString::StackBufferOrFields" = type { %struct.anon.0, [32 x i8] }
%struct.anon.0 = type { i16, i32, i32, ptr }
%"class.icu_75::MetaZoneIDsEnumeration" = type { %"class.icu_75::StringEnumeration.base", i32, i32, ptr, %"class.icu_75::LocalPointer" }
%"class.icu_75::StringEnumeration.base" = type <{ %"class.icu_75::UObject", %"class.icu_75::UnicodeString", [32 x i8], ptr, i32 }>
%"class.icu_75::StringEnumeration" = type <{ %"class.icu_75::UObject", %"class.icu_75::UnicodeString", [32 x i8], ptr, i32, [4 x i8] }>

; Function Attrs: mustprogress nounwind uwtable
define linkonce_odr noundef i32 @_ZNK6icu_7513UnicodeString14getShortLengthEv(ptr noundef nonnull align 8 dereferenceable(64) %this) #0 comdat align 2 {
entry:
  %this.addr = alloca ptr, align 8
  store ptr %this, ptr %this.addr, align 8
  %this1 = load ptr, ptr %this.addr, align 8
  %fUnion = getelementptr inbounds %"class.icu_75::UnicodeString", ptr %this1, i32 0, i32 1
  %fLengthAndFlags = getelementptr inbounds %struct.anon.0, ptr %fUnion, i32 0, i32 0
  %0 = load i16, ptr %fLengthAndFlags, align 8
  %conv = sext i16 %0 to i32
  %shr = ashr i32 %conv, 5
  ret i32 %shr
}

; Function Attrs: mustprogress nounwind uwtable
define linkonce_odr noundef signext i8 @_ZNK6icu_7513UnicodeString14hasShortLengthEv(ptr noundef nonnull align 8 dereferenceable(64) %this) #0 comdat align 2 {
entry:
  %this.addr = alloca ptr, align 8
  store ptr %this, ptr %this.addr, align 8
  %this1 = load ptr, ptr %this.addr, align 8
  %fUnion = getelementptr inbounds %"class.icu_75::UnicodeString", ptr %this1, i32 0, i32 1
  %fLengthAndFlags = getelementptr inbounds %struct.anon.0, ptr %fUnion, i32 0, i32 0
  %0 = load i16, ptr %fLengthAndFlags, align 8
  %conv = sext i16 %0 to i32
  %cmp = icmp sge i32 %conv, 0
  %conv2 = zext i1 %cmp to i8
  ret i8 %conv2
}

; Function Attrs: mustprogress uwtable
define linkonce_odr noundef i32 @_ZNK6icu_7513UnicodeString6lengthEv(ptr noundef nonnull align 8 dereferenceable(64) %this) #1 comdat align 2 {
entry:
  %this.addr = alloca ptr, align 8
  store ptr %this, ptr %this.addr, align 8
  %this1 = load ptr, ptr %this.addr, align 8
  %call = call noundef signext i8 @_ZNK6icu_7513UnicodeString14hasShortLengthEv(ptr noundef nonnull align 8 dereferenceable(64) %this1)
  %tobool = icmp ne i8 %call, 0
  br i1 %tobool, label %cond.true, label %cond.false

cond.true:                                        ; preds = %entry
  %call2 = call noundef i32 @_ZNK6icu_7513UnicodeString14getShortLengthEv(ptr noundef nonnull align 8 dereferenceable(64) %this1)
  br label %cond.end

cond.false:                                       ; preds = %entry
  %fUnion = getelementptr inbounds %"class.icu_75::UnicodeString", ptr %this1, i32 0, i32 1
  %fLength = getelementptr inbounds %struct.anon.0, ptr %fUnion, i32 0, i32 1
  %0 = load i32, ptr %fLength, align 4
  br label %cond.end

cond.end:                                         ; preds = %cond.false, %cond.true
  %cond = phi i32 [ %call2, %cond.true ], [ %0, %cond.false ]
  ret i32 %cond
}

; Function Attrs: mustprogress uwtable
define linkonce_odr noundef nonnull align 8 dereferenceable(64) ptr @_ZN6icu_7513UnicodeString5setToEPKDsi(ptr noundef nonnull align 8 dereferenceable(64) %this, ptr noundef %srcChars, i32 noundef %srcLength) #1 comdat align 2 {
entry:
  %this.addr = alloca ptr, align 8
  %srcChars.addr = alloca ptr, align 8
  %srcLength.addr = alloca i32, align 4
  store ptr %this, ptr %this.addr, align 8
  store ptr %srcChars, ptr %srcChars.addr, align 8
  store i32 %srcLength, ptr %srcLength.addr, align 4
  %this1 = load ptr, ptr %this.addr, align 8
  call void @_ZN6icu_7513UnicodeString7unBogusEv(ptr noundef nonnull align 8 dereferenceable(64) %this1)
  %call = call noundef i32 @_ZNK6icu_7513UnicodeString6lengthEv(ptr noundef nonnull align 8 dereferenceable(64) %this1)
  %0 = load ptr, ptr %srcChars.addr, align 8
  %1 = load i32, ptr %srcLength.addr, align 4
  %call2 = call noundef nonnull align 8 dereferenceable(64) ptr @_ZN6icu_7513UnicodeString9doReplaceEiiPKDsii(ptr noundef nonnull align 8 dereferenceable(64) %this1, i32 noundef 0, i32 noundef %call, ptr noundef %0, i32 noundef 0, i32 noundef %1)
  ret ptr %call2
}

; Function Attrs: mustprogress nounwind uwtable
define internal noundef signext i8 @_ZL9U_SUCCESS10UErrorCode(i32 noundef %code) #0 {
entry:
  %code.addr = alloca i32, align 4
  store i32 %code, ptr %code.addr, align 4
  %0 = load i32, ptr %code.addr, align 4
  %cmp = icmp sle i32 %0, 0
  %conv = zext i1 %cmp to i8
  ret i8 %conv
}

; Function Attrs: mustprogress uwtable
define noundef ptr @_ZN6icu_7522MetaZoneIDsEnumeration5snextER10UErrorCode(ptr noundef nonnull align 8 dereferenceable(144) %this, ptr noundef nonnull align 4 dereferenceable(4) %status) unnamed_addr #1 align 2 {
entry:
  %retval = alloca ptr, align 8
  %this.addr = alloca ptr, align 8
  %status.addr = alloca ptr, align 8
  store ptr %this, ptr %this.addr, align 8
  store ptr %status, ptr %status.addr, align 8
  %this1 = load ptr, ptr %this.addr, align 8
  %0 = load ptr, ptr %status.addr, align 8
  %1 = load i32, ptr %0, align 4
  %call = call noundef signext i8 @_ZL9U_SUCCESS10UErrorCode(i32 noundef %1)
  %tobool = icmp ne i8 %call, 0
  br i1 %tobool, label %land.lhs.true, label %if.end

land.lhs.true:                                    ; preds = %entry
  %fMetaZoneIDs = getelementptr inbounds %"class.icu_75::MetaZoneIDsEnumeration", ptr %this1, i32 0, i32 3
  %2 = load ptr, ptr %fMetaZoneIDs, align 8
  %cmp = icmp ne ptr %2, null
  br i1 %cmp, label %land.lhs.true2, label %if.end

land.lhs.true2:                                   ; preds = %land.lhs.true
  %fPos = getelementptr inbounds %"class.icu_75::MetaZoneIDsEnumeration", ptr %this1, i32 0, i32 2
  %3 = load i32, ptr %fPos, align 8
  %fLen = getelementptr inbounds %"class.icu_75::MetaZoneIDsEnumeration", ptr %this1, i32 0, i32 1
  %4 = load i32, ptr %fLen, align 4
  %cmp3 = icmp slt i32 %3, %4
  br i1 %cmp3, label %if.then, label %if.end

if.then:                                          ; preds = %land.lhs.true2
  %unistr = getelementptr inbounds %"class.icu_75::StringEnumeration", ptr %this1, i32 0, i32 1
  %fMetaZoneIDs4 = getelementptr inbounds %"class.icu_75::MetaZoneIDsEnumeration", ptr %this1, i32 0, i32 3
  %5 = load ptr, ptr %fMetaZoneIDs4, align 8
  %fPos5 = getelementptr inbounds %"class.icu_75::MetaZoneIDsEnumeration", ptr %this1, i32 0, i32 2
  %6 = load i32, ptr %fPos5, align 8
  %inc = add nsw i32 %6, 1
  store i32 %inc, ptr %fPos5, align 8
  %call6 = call noundef ptr @_ZNK6icu_757UVector9elementAtEi(ptr noundef nonnull align 8 dereferenceable(40) %5, i32 noundef %6)
  %call7 = call noundef nonnull align 8 dereferenceable(64) ptr @_ZN6icu_7513UnicodeString5setToEPKDsi(ptr noundef nonnull align 8 dereferenceable(64) %unistr, ptr noundef %call6, i32 noundef -1)
  %unistr8 = getelementptr inbounds %"class.icu_75::StringEnumeration", ptr %this1, i32 0, i32 1
  store ptr %unistr8, ptr %retval, align 8
  br label %return

if.end:                                           ; preds = %land.lhs.true2, %land.lhs.true, %entry
  store ptr null, ptr %retval, align 8
  br label %return

return:                                           ; preds = %if.end, %if.then
  %7 = load ptr, ptr %retval, align 8
  ret ptr %7
}