; Function Attrs: mustprogress uwtable
define noundef ptr @_ZN6icu_7522MetaZoneIDsEnumeration5snextER10UErrorCode(ptr noundef nonnull align 8 dereferenceable(144) %this, ptr nocapture noundef nonnull readonly align 4 dereferenceable(4) %status) unnamed_addr #1 align 2 {
entry:
  %0 = load i32, ptr %status, align 4
  %cmp.i = icmp sgt i32 %0, 0
  br i1 %cmp.i, label %return, label %land.lhs.true

land.lhs.true:                                    ; preds = %entry
  %fMetaZoneIDs = getelementptr inbounds i8, ptr %this, i64 128
  %1 = load ptr, ptr %fMetaZoneIDs, align 8
  %cmp.not = icmp eq ptr %1, null
  br i1 %cmp.not, label %return, label %land.lhs.true2

land.lhs.true2:                                   ; preds = %land.lhs.true
  %fPos = getelementptr inbounds i8, ptr %this, i64 120
  %2 = load i32, ptr %fPos, align 8
  %fLen = getelementptr inbounds i8, ptr %this, i64 116
  %3 = load i32, ptr %fLen, align 4
  %cmp3 = icmp slt i32 %2, %3
  br i1 %cmp3, label %if.then, label %return

if.then:                                          ; preds = %land.lhs.true2
  %unistr = getelementptr inbounds i8, ptr %this, i64 8
  %inc = add nsw i32 %2, 1
  store i32 %inc, ptr %fPos, align 8
  %call6 = tail call noundef ptr @_ZNK6icu_757UVector9elementAtEi(ptr noundef nonnull align 8 dereferenceable(40) %1, i32 noundef %2)
  tail call void @_ZN6icu_7513UnicodeString7unBogusEv(ptr noundef nonnull align 8 dereferenceable(64) %unistr)
  %fUnion.i.i.i = getelementptr inbounds i8, ptr %this, i64 16
  %4 = load i16, ptr %fUnion.i.i.i, align 8
  %cmp.i.i.i = icmp slt i16 %4, 0
  %5 = ashr i16 %4, 5
  %shr.i.i.i = sext i16 %5 to i32
  %fLength.i.i = getelementptr inbounds i8, ptr %this, i64 20
  %6 = load i32, ptr %fLength.i.i, align 4
  %cond.i.i = select i1 %cmp.i.i.i, i32 %6, i32 %shr.i.i.i
  %call2.i = tail call noundef nonnull align 8 dereferenceable(64) ptr @_ZN6icu_7513UnicodeString9doReplaceEiiPKDsii(ptr noundef nonnull align 8 dereferenceable(64) %unistr, i32 noundef 0, i32 noundef %cond.i.i, ptr noundef %call6, i32 noundef 0, i32 noundef -1)
  br label %return

return:                                           ; preds = %entry, %land.lhs.true, %land.lhs.true2, %if.then
  %retval.0 = phi ptr [ %unistr, %if.then ], [ null, %land.lhs.true2 ], [ null, %land.lhs.true ], [ null, %entry ]
  ret ptr %retval.0
}